target datalayout = "e-m:e-p270:32:32-p271:32:32-p272:64:64-i64:64-i128:128-f80:128-n8:16:32:64-S128"
target triple = "x86_64-pc-linux-gnu"

%struct.nghttp2_frame_hd = type { i64, i32, i8, i8, i8 }
%struct.nghttp2_goaway = type { %struct.nghttp2_frame_hd, i32, i32, ptr, i64, i8 }

; Function Attrs: nounwind uwtable
define hidden void @nghttp2_frame_unpack_goaway_payload(ptr noundef %0, ptr noundef %1, ptr noundef %2, i64 noundef %3) #0 {
  %5 = alloca ptr, align 8
  %6 = alloca ptr, align 8
  %7 = alloca ptr, align 8
  %8 = alloca i64, align 8
  store ptr %0, ptr %5, align 8, !tbaa !8
  store ptr %1, ptr %6, align 8, !tbaa !3
  store ptr %2, ptr %7, align 8, !tbaa !3
  store i64 %3, ptr %8, align 8, !tbaa !18
  %9 = load ptr, ptr %6, align 8, !tbaa !3
  %10 = call i32 @nghttp2_get_uint32(ptr noundef %9)
  %11 = and i32 %10, 2147483647
  %12 = load ptr, ptr %5, align 8, !tbaa !8
  %13 = getelementptr inbounds nuw %struct.nghttp2_goaway, ptr %12, i32 0, i32 1
  store i32 %11, ptr %13, align 8, !tbaa !38
  %14 = load ptr, ptr %6, align 8, !tbaa !3
  %15 = getelementptr inbounds i8, ptr %14, i64 4
  %16 = call i32 @nghttp2_get_uint32(ptr noundef %15)
  %17 = load ptr, ptr %5, align 8, !tbaa !8
  %18 = getelementptr inbounds nuw %struct.nghttp2_goaway, ptr %17, i32 0, i32 2
  store i32 %16, ptr %18, align 4, !tbaa !40
  %19 = load ptr, ptr %7, align 8, !tbaa !3
  %20 = load ptr, ptr %5, align 8, !tbaa !8
  %21 = getelementptr inbounds nuw %struct.nghttp2_goaway, ptr %20, i32 0, i32 3
  store ptr %19, ptr %21, align 8, !tbaa !41
  %22 = load i64, ptr %8, align 8, !tbaa !18
  %23 = load ptr, ptr %5, align 8, !tbaa !8
  %24 = getelementptr inbounds nuw %struct.nghttp2_goaway, ptr %23, i32 0, i32 4
  store i64 %22, ptr %24, align 8, !tbaa !42
  ret void
}