; Function Attrs: nounwind uwtable
define hidden void @nghttp2_frame_unpack_goaway_payload(ptr noundef writeonly captures(none) initializes((16, 40)) %0, ptr noundef %1, ptr noundef %2, i64 noundef %3) local_unnamed_addr #0 {
  %5 = tail call i32 @nghttp2_get_uint32(ptr noundef %1) #18
  %6 = and i32 %5, 2147483647
  %7 = getelementptr inbounds nuw i8, ptr %0, i64 16
  store i32 %6, ptr %7, align 8, !tbaa !34
  %8 = getelementptr inbounds nuw i8, ptr %1, i64 4
  %9 = tail call i32 @nghttp2_get_uint32(ptr noundef nonnull %8) #18
  %10 = getelementptr inbounds nuw i8, ptr %0, i64 20
  store i32 %9, ptr %10, align 4, !tbaa !37
  %11 = getelementptr inbounds nuw i8, ptr %0, i64 24
  store ptr %2, ptr %11, align 8, !tbaa !38
  %12 = getelementptr inbounds nuw i8, ptr %0, i64 32
  store i64 %3, ptr %12, align 8, !tbaa !39
  ret void
}